target datalayout = "e-m:e-p270:32:32-p271:32:32-p272:64:64-i64:64-i128:128-f80:128-n8:16:32:64-S128"
target triple = "x86_64-pc-linux-gnu"

%struct.ltlNode_t = type { i32, ptr, ptr, ptr, ptr }

@.str.5 = private unnamed_addr constant [3 x i8] c"& \00", align 1
@.str.6 = private unnamed_addr constant [3 x i8] c"+ \00", align 1
@.str.7 = private unnamed_addr constant [3 x i8] c"~ \00", align 1
@.str.8 = private unnamed_addr constant [3 x i8] c"G \00", align 1
@.str.9 = private unnamed_addr constant [3 x i8] c"F \00", align 1
@.str.10 = private unnamed_addr constant [3 x i8] c"X \00", align 1
@.str.11 = private unnamed_addr constant [3 x i8] c"U \00", align 1
@.str.12 = private unnamed_addr constant [4 x i8] c"%s \00", align 1
@.str.13 = private unnamed_addr constant [44 x i8] c"\0AUnsupported token type: Exiting execution\0A\00", align 1
@.str.14 = private unnamed_addr constant [3 x i8] c"( \00", align 1
@.str.15 = private unnamed_addr constant [3 x i8] c") \00", align 1

; Function Attrs: nounwind uwtable
define void @traverseAbstractSyntaxTree_postFix(ptr noundef %0) #0 {
  %2 = alloca ptr, align 8
  store ptr %0, ptr %2, align 8, !tbaa !7
  %3 = load ptr, ptr %2, align 8, !tbaa !7
  %4 = getelementptr inbounds nuw %struct.ltlNode_t, ptr %3, i32 0, i32 0
  %5 = load i32, ptr %4, align 8, !tbaa !10
  switch i32 %5, label %61 [
    i32 0, label %6
    i32 1, label %16
    i32 2, label %26
    i32 4, label %31
    i32 5, label %36
    i32 6, label %41
    i32 7, label %46
    i32 8, label %56
  ]

6:                                                ; preds = %1
  %7 = call i32 (ptr, ...) @printf(ptr noundef @.str.14)
  %8 = load ptr, ptr %2, align 8, !tbaa !7
  %9 = getelementptr inbounds nuw %struct.ltlNode_t, ptr %8, i32 0, i32 3
  %10 = load ptr, ptr %9, align 8, !tbaa !16
  call void @traverseAbstractSyntaxTree_postFix(ptr noundef %10)
  %11 = call i32 (ptr, ...) @printf(ptr noundef @.str.5)
  %12 = load ptr, ptr %2, align 8, !tbaa !7
  %13 = getelementptr inbounds nuw %struct.ltlNode_t, ptr %12, i32 0, i32 4
  %14 = load ptr, ptr %13, align 8, !tbaa !17
  call void @traverseAbstractSyntaxTree_postFix(ptr noundef %14)
  %15 = call i32 (ptr, ...) @printf(ptr noundef @.str.15)
  br label %63

16:                                               ; preds = %1
  %17 = call i32 (ptr, ...) @printf(ptr noundef @.str.14)
  %18 = load ptr, ptr %2, align 8, !tbaa !7
  %19 = getelementptr inbounds nuw %struct.ltlNode_t, ptr %18, i32 0, i32 3
  %20 = load ptr, ptr %19, align 8, !tbaa !16
  call void @traverseAbstractSyntaxTree_postFix(ptr noundef %20)
  %21 = call i32 (ptr, ...) @printf(ptr noundef @.str.6)
  %22 = load ptr, ptr %2, align 8, !tbaa !7
  %23 = getelementptr inbounds nuw %struct.ltlNode_t, ptr %22, i32 0, i32 4
  %24 = load ptr, ptr %23, align 8, !tbaa !17
  call void @traverseAbstractSyntaxTree_postFix(ptr noundef %24)
  %25 = call i32 (ptr, ...) @printf(ptr noundef @.str.15)
  br label %63

26:                                               ; preds = %1
  %27 = call i32 (ptr, ...) @printf(ptr noundef @.str.7)
  %28 = load ptr, ptr %2, align 8, !tbaa !7
  %29 = getelementptr inbounds nuw %struct.ltlNode_t, ptr %28, i32 0, i32 3
  %30 = load ptr, ptr %29, align 8, !tbaa !16
  call void @traverseAbstractSyntaxTree_postFix(ptr noundef %30)
  br label %63

31:                                               ; preds = %1
  %32 = call i32 (ptr, ...) @printf(ptr noundef @.str.8)
  %33 = load ptr, ptr %2, align 8, !tbaa !7
  %34 = getelementptr inbounds nuw %struct.ltlNode_t, ptr %33, i32 0, i32 3
  %35 = load ptr, ptr %34, align 8, !tbaa !16
  call void @traverseAbstractSyntaxTree_postFix(ptr noundef %35)
  br label %63

36:                                               ; preds = %1
  %37 = call i32 (ptr, ...) @printf(ptr noundef @.str.9)
  %38 = load ptr, ptr %2, align 8, !tbaa !7
  %39 = getelementptr inbounds nuw %struct.ltlNode_t, ptr %38, i32 0, i32 3
  %40 = load ptr, ptr %39, align 8, !tbaa !16
  call void @traverseAbstractSyntaxTree_postFix(ptr noundef %40)
  br label %63

41:                                               ; preds = %1
  %42 = call i32 (ptr, ...) @printf(ptr noundef @.str.10)
  %43 = load ptr, ptr %2, align 8, !tbaa !7
  %44 = getelementptr inbounds nuw %struct.ltlNode_t, ptr %43, i32 0, i32 3
  %45 = load ptr, ptr %44, align 8, !tbaa !16
  call void @traverseAbstractSyntaxTree_postFix(ptr noundef %45)
  br label %63

46:                                               ; preds = %1
  %47 = call i32 (ptr, ...) @printf(ptr noundef @.str.14)
  %48 = load ptr, ptr %2, align 8, !tbaa !7
  %49 = getelementptr inbounds nuw %struct.ltlNode_t, ptr %48, i32 0, i32 3
  %50 = load ptr, ptr %49, align 8, !tbaa !16
  call void @traverseAbstractSyntaxTree_postFix(ptr noundef %50)
  %51 = call i32 (ptr, ...) @printf(ptr noundef @.str.11)
  %52 = load ptr, ptr %2, align 8, !tbaa !7
  %53 = getelementptr inbounds nuw %struct.ltlNode_t, ptr %52, i32 0, i32 4
  %54 = load ptr, ptr %53, align 8, !tbaa !17
  call void @traverseAbstractSyntaxTree_postFix(ptr noundef %54)
  %55 = call i32 (ptr, ...) @printf(ptr noundef @.str.15)
  br label %63

56:                                               ; preds = %1
  %57 = load ptr, ptr %2, align 8, !tbaa !7
  %58 = getelementptr inbounds nuw %struct.ltlNode_t, ptr %57, i32 0, i32 1
  %59 = load ptr, ptr %58, align 8, !tbaa !15
  %60 = call i32 (ptr, ...) @printf(ptr noundef @.str.12, ptr noundef %59)
  br label %63

61:                                               ; preds = %1
  %62 = call i32 (ptr, ...) @printf(ptr noundef @.str.13)
  call void @exit(i32 noundef 0) #12
  unreachable

63:                                               ; preds = %56, %46, %41, %36, %31, %26, %16, %6
  ret void
}