; Function Attrs: nofree nounwind uwtable
define void @traverseAbstractSyntaxTree_postFix(ptr noundef readonly captures(none) %0) local_unnamed_addr #5 {
  br label %tailrecurse

tailrecurse:                                      ; preds = %tailrecurse.backedge, %1
  %.tr = phi ptr [ %0, %1 ], [ %.tr.be, %tailrecurse.backedge ]
  %2 = load i32, ptr %.tr, align 8, !tbaa !3
  switch i32 %2, label %34 [
    i32 0, label %3
    i32 1, label %11
    i32 2, label %19
    i32 4, label %tailrecurse.backedge
    i32 5, label %21
    i32 6, label %22
    i32 7, label %23
    i32 8, label %common.ret
  ]

common.ret36:                                     ; preds = %23, %11, %3, %common.ret
  ret void

3:                                                ; preds = %tailrecurse
  %4 = tail call i32 (ptr, ...) @printf(ptr noundef nonnull dereferenceable(1) @.str.14)
  %5 = getelementptr inbounds nuw i8, ptr %.tr, i64 24
  %6 = load ptr, ptr %5, align 8, !tbaa !46
  tail call void @traverseAbstractSyntaxTree_postFix(ptr noundef %6)
  %7 = tail call i32 (ptr, ...) @printf(ptr noundef nonnull dereferenceable(1) @.str.5)
  %8 = getelementptr inbounds nuw i8, ptr %.tr, i64 32
  %9 = load ptr, ptr %8, align 8, !tbaa !48
  tail call void @traverseAbstractSyntaxTree_postFix(ptr noundef %9)
  %10 = tail call i32 (ptr, ...) @printf(ptr noundef nonnull dereferenceable(1) @.str.15)
  br label %common.ret36

11:                                               ; preds = %tailrecurse
  %12 = tail call i32 (ptr, ...) @printf(ptr noundef nonnull dereferenceable(1) @.str.14)
  %13 = getelementptr inbounds nuw i8, ptr %.tr, i64 24
  %14 = load ptr, ptr %13, align 8, !tbaa !46
  tail call void @traverseAbstractSyntaxTree_postFix(ptr noundef %14)
  %15 = tail call i32 (ptr, ...) @printf(ptr noundef nonnull dereferenceable(1) @.str.6)
  %16 = getelementptr inbounds nuw i8, ptr %.tr, i64 32
  %17 = load ptr, ptr %16, align 8, !tbaa !48
  tail call void @traverseAbstractSyntaxTree_postFix(ptr noundef %17)
  %18 = tail call i32 (ptr, ...) @printf(ptr noundef nonnull dereferenceable(1) @.str.15)
  br label %common.ret36

19:                                               ; preds = %tailrecurse
  br label %tailrecurse.backedge

tailrecurse.backedge:                             ; preds = %tailrecurse, %19, %21, %22
  %.str.7.sink = phi ptr [ @.str.7, %19 ], [ @.str.9, %21 ], [ @.str.10, %22 ], [ @.str.8, %tailrecurse ]
  %20 = tail call i32 (ptr, ...) @printf(ptr noundef nonnull dereferenceable(1) %.str.7.sink)
  %.tr.be.in = getelementptr inbounds nuw i8, ptr %.tr, i64 24
  %.tr.be = load ptr, ptr %.tr.be.in, align 8, !tbaa !46
  br label %tailrecurse

21:                                               ; preds = %tailrecurse
  br label %tailrecurse.backedge

22:                                               ; preds = %tailrecurse
  br label %tailrecurse.backedge

23:                                               ; preds = %tailrecurse
  %24 = tail call i32 (ptr, ...) @printf(ptr noundef nonnull dereferenceable(1) @.str.14)
  %25 = getelementptr inbounds nuw i8, ptr %.tr, i64 24
  %26 = load ptr, ptr %25, align 8, !tbaa !46
  tail call void @traverseAbstractSyntaxTree_postFix(ptr noundef %26)
  %27 = tail call i32 (ptr, ...) @printf(ptr noundef nonnull dereferenceable(1) @.str.11)
  %28 = getelementptr inbounds nuw i8, ptr %.tr, i64 32
  %29 = load ptr, ptr %28, align 8, !tbaa !48
  tail call void @traverseAbstractSyntaxTree_postFix(ptr noundef %29)
  %30 = tail call i32 (ptr, ...) @printf(ptr noundef nonnull dereferenceable(1) @.str.15)
  br label %common.ret36

common.ret:                                       ; preds = %tailrecurse
  %31 = getelementptr inbounds nuw i8, ptr %.tr, i64 8
  %32 = load ptr, ptr %31, align 8, !tbaa !47
  %33 = tail call i32 (ptr, ...) @printf(ptr noundef nonnull dereferenceable(1) @.str.12, ptr noundef %32)
  br label %common.ret36

34:                                               ; preds = %tailrecurse
  %puts = tail call i32 @puts(ptr nonnull dereferenceable(1) @str.1)
  tail call void @exit(i32 noundef 0) #26
  unreachable
}